target datalayout = "e-m:e-p270:32:32-p271:32:32-p272:64:64-i64:64-i128:128-f80:128-n8:16:32:64-S128"
target triple = "x86_64-pc-linux-gnu"

%struct.sentinelState = type { [41 x i8], i64, ptr, i32, i32, i64, i64, ptr, ptr, i32, i64, i32, ptr, ptr, i32, i32 }
%struct.sentinelAddr = type { ptr, ptr, i32 }

@sentinel = dso_local global %struct.sentinelState zeroinitializer, align 8
@.str.13 = private unnamed_addr constant [8 x i8] c"[%s]:%d\00", align 1
@.str.14 = private unnamed_addr constant [6 x i8] c"%s:%d\00", align 1

; Function Attrs: nounwind uwtable
define dso_local ptr @announceSentinelAddr(ptr noundef %0) #0 {
  %2 = alloca ptr, align 8
  store ptr %0, ptr %2, align 8, !tbaa !94
  %3 = load i32, ptr getelementptr inbounds nuw (%struct.sentinelState, ptr @sentinel, i32 0, i32 15), align 4, !tbaa !78
  %4 = icmp ne i32 %3, 0
  br i1 %4, label %5, label %9

5:                                                ; preds = %1
  %6 = load ptr, ptr %2, align 8, !tbaa !94
  %7 = getelementptr inbounds nuw %struct.sentinelAddr, ptr %6, i32 0, i32 0
  %8 = load ptr, ptr %7, align 8, !tbaa !95
  br label %13

9:                                                ; preds = %1
  %10 = load ptr, ptr %2, align 8, !tbaa !94
  %11 = getelementptr inbounds nuw %struct.sentinelAddr, ptr %10, i32 0, i32 1
  %12 = load ptr, ptr %11, align 8, !tbaa !97
  br label %13

13:                                               ; preds = %9, %5
  %14 = phi ptr [ %8, %5 ], [ %12, %9 ]
  ret ptr %14
}

; Function Attrs: nounwind uwtable
define dso_local ptr @announceSentinelAddrAndPort(ptr noundef %0) #0 {
  %2 = alloca ptr, align 8
  %3 = alloca ptr, align 8
  %4 = alloca ptr, align 8
  %5 = alloca i32, align 4
  store ptr %0, ptr %3, align 8, !tbaa !94
  call void @llvm.lifetime.start.p0(i64 8, ptr %4) #16
  %6 = load ptr, ptr %3, align 8, !tbaa !94
  %7 = call ptr @announceSentinelAddr(ptr noundef %6)
  store ptr %7, ptr %4, align 8, !tbaa !93
  %8 = load ptr, ptr %4, align 8, !tbaa !93
  %9 = call ptr @strchr(ptr noundef %8, i32 noundef 58) #19
  %10 = icmp ne ptr %9, null
  br i1 %10, label %11, label %18

11:                                               ; preds = %1
  %12 = call ptr @sdsempty()
  %13 = load ptr, ptr %4, align 8, !tbaa !93
  %14 = load ptr, ptr %3, align 8, !tbaa !94
  %15 = getelementptr inbounds nuw %struct.sentinelAddr, ptr %14, i32 0, i32 2
  %16 = load i32, ptr %15, align 8, !tbaa !98
  %17 = call ptr (ptr, ptr, ...) @sdscatprintf(ptr noundef %12, ptr noundef @.str.13, ptr noundef %13, i32 noundef %16)
  store ptr %17, ptr %2, align 8
  store i32 1, ptr %5, align 4
  br label %25

18:                                               ; preds = %1
  %19 = call ptr @sdsempty()
  %20 = load ptr, ptr %4, align 8, !tbaa !93
  %21 = load ptr, ptr %3, align 8, !tbaa !94
  %22 = getelementptr inbounds nuw %struct.sentinelAddr, ptr %21, i32 0, i32 2
  %23 = load i32, ptr %22, align 8, !tbaa !98
  %24 = call ptr (ptr, ptr, ...) @sdscatprintf(ptr noundef %19, ptr noundef @.str.14, ptr noundef %20, i32 noundef %23)
  store ptr %24, ptr %2, align 8
  store i32 1, ptr %5, align 4
  br label %25

25:                                               ; preds = %18, %11
  call void @llvm.lifetime.end.p0(i64 8, ptr %4) #16
  %26 = load ptr, ptr %2, align 8
  ret ptr %26
}