; Function Attrs: nounwind uwtable
define dso_local ptr @announceSentinelAddrAndPort(ptr noundef readonly captures(none) %0) local_unnamed_addr #0 {
  %2 = load i32, ptr getelementptr inbounds nuw (i8, ptr @sentinel, i64 148), align 4, !tbaa !88
  %.not.i = icmp eq i32 %2, 0
  %.in.idx.i = select i1 %.not.i, i64 8, i64 0
  %.in.i = getelementptr inbounds nuw i8, ptr %0, i64 %.in.idx.i
  %3 = load ptr, ptr %.in.i, align 8, !tbaa !87
  %4 = tail call ptr @strchr(ptr noundef nonnull dereferenceable(1) %3, i32 noundef 58) #34
  %.not = icmp eq ptr %4, null
  %5 = tail call ptr @sdsempty() #30
  %6 = getelementptr inbounds nuw i8, ptr %0, i64 16
  %7 = load i32, ptr %6, align 8, !tbaa !86
  %.str.14..str.13 = select i1 %.not, ptr @.str.14, ptr @.str.13
  %8 = tail call ptr (ptr, ptr, ...) @sdscatprintf(ptr noundef %5, ptr noundef nonnull %.str.14..str.13, ptr noundef nonnull %3, i32 noundef %7) #30
  ret ptr %8
}